(lp0
(lp1
(lp2
S'disgust'
p3
aS'.'
p4
aa(lp5
S'thi'
p6
aS'make'
p7
aS'a'
p8
aS'jar'
p9
aS'of'
p10
aS'groceri'
p11
aS'store'
p12
aS'brand'
p13
aS'PEMO'
p14
aS'sauc'
p15
aS'and'
p16
aS'cheap'
p17
aS'pasta'
p18
aS'sound'
p19
aS'like'
p20
aS'a'
p21
aS'feast'
p22
aS'.'
p23
aaa(lp24
(lp25
S'Doe'
p26
aS'someth'
p27
aS'like'
p28
aS'thi'
p29
aS'realli'
p30
aS'need'
p31
aS'a'
p32
aS'recip'
p33
aS'?'
p34
aa(lp35
S'Honestli'
p36
aS'...'
p37
aaa.