(lp0
S'3_5_Great-Scotts-Caesar-Salad-409'
p1
aS'4_Pickled-Red-Onions-356753'
p2
aS'3_5_Caramel-Corn-with-Smoked-Almonds-and-Fleur-de-Sel-368716'
p3
aS'3_5_Sloppy-Joes-100544'
p4
aS'4_Fingerling-Potatoes-with-Oyster-Mushrooms-235160'
p5
aS'3_5_Broiled-Salmon-with-Onion-Tomato-and-Lemon-2642'
p6
aS'3_5_Risotto-with-Spicy-Sausage-100963'
p7
aS'4_Salmon-with-Fennel-and-Pernod-240682'
p8
aS''
p9
a.