(lp0
S'1_Pecan-Sandies-for-My-Mom-51133200'
p1
aS'1_5_Sweet-Potato-Biscuits-361850'
p2
aS'1_Penne-with-Meat-Sauce-240525'
p3
aS'1_5_Cinnamon-Dusted-Mini-Churros-352531'
p4
aS'1_5_Mocha-Custards-with-Buttermilk-Doughnuts-105701'
p5
aS'1_Lemon-Pudding-237147'
p6
aS'1_5_Penne-with-Vegetables-and-Olives-2727'
p7
aS''
p8
a.